target datalayout = "e-m:e-p270:32:32-p271:32:32-p272:64:64-i64:64-i128:128-f80:128-n8:16:32:64-S128"
target triple = "x86_64-pc-linux-gnu"

; Function Attrs: nounwind uwtable
define internal void @put_rv30_tpel16_v_lowpass(ptr noundef %0, ptr noundef %1, i32 noundef %2, i32 noundef %3, i32 noundef %4, i32 noundef %5) #3 {
  %7 = alloca ptr, align 8
  %8 = alloca ptr, align 8
  %9 = alloca i32, align 4
  %10 = alloca i32, align 4
  %11 = alloca i32, align 4
  %12 = alloca i32, align 4
  store ptr %0, ptr %7, align 8, !tbaa !10
  store ptr %1, ptr %8, align 8, !tbaa !10
  store i32 %2, ptr %9, align 4, !tbaa !14
  store i32 %3, ptr %10, align 4, !tbaa !14
  store i32 %4, ptr %11, align 4, !tbaa !14
  store i32 %5, ptr %12, align 4, !tbaa !14
  %13 = load ptr, ptr %7, align 8, !tbaa !10
  %14 = load ptr, ptr %8, align 8, !tbaa !10
  %15 = load i32, ptr %9, align 4, !tbaa !14
  %16 = load i32, ptr %10, align 4, !tbaa !14
  %17 = load i32, ptr %11, align 4, !tbaa !14
  %18 = load i32, ptr %12, align 4, !tbaa !14
  call void @put_rv30_tpel8_v_lowpass(ptr noundef %13, ptr noundef %14, i32 noundef %15, i32 noundef %16, i32 noundef %17, i32 noundef %18)
  %19 = load ptr, ptr %7, align 8, !tbaa !10
  %20 = getelementptr inbounds i8, ptr %19, i64 8
  %21 = load ptr, ptr %8, align 8, !tbaa !10
  %22 = getelementptr inbounds i8, ptr %21, i64 8
  %23 = load i32, ptr %9, align 4, !tbaa !14
  %24 = load i32, ptr %10, align 4, !tbaa !14
  %25 = load i32, ptr %11, align 4, !tbaa !14
  %26 = load i32, ptr %12, align 4, !tbaa !14
  call void @put_rv30_tpel8_v_lowpass(ptr noundef %20, ptr noundef %22, i32 noundef %23, i32 noundef %24, i32 noundef %25, i32 noundef %26)
  %27 = load i32, ptr %10, align 4, !tbaa !14
  %28 = mul nsw i32 8, %27
  %29 = load ptr, ptr %8, align 8, !tbaa !10
  %30 = sext i32 %28 to i64
  %31 = getelementptr inbounds i8, ptr %29, i64 %30
  store ptr %31, ptr %8, align 8, !tbaa !10
  %32 = load i32, ptr %9, align 4, !tbaa !14
  %33 = mul nsw i32 8, %32
  %34 = load ptr, ptr %7, align 8, !tbaa !10
  %35 = sext i32 %33 to i64
  %36 = getelementptr inbounds i8, ptr %34, i64 %35
  store ptr %36, ptr %7, align 8, !tbaa !10
  %37 = load ptr, ptr %7, align 8, !tbaa !10
  %38 = load ptr, ptr %8, align 8, !tbaa !10
  %39 = load i32, ptr %9, align 4, !tbaa !14
  %40 = load i32, ptr %10, align 4, !tbaa !14
  %41 = load i32, ptr %11, align 4, !tbaa !14
  %42 = load i32, ptr %12, align 4, !tbaa !14
  call void @put_rv30_tpel8_v_lowpass(ptr noundef %37, ptr noundef %38, i32 noundef %39, i32 noundef %40, i32 noundef %41, i32 noundef %42)
  %43 = load ptr, ptr %7, align 8, !tbaa !10
  %44 = getelementptr inbounds i8, ptr %43, i64 8
  %45 = load ptr, ptr %8, align 8, !tbaa !10
  %46 = getelementptr inbounds i8, ptr %45, i64 8
  %47 = load i32, ptr %9, align 4, !tbaa !14
  %48 = load i32, ptr %10, align 4, !tbaa !14
  %49 = load i32, ptr %11, align 4, !tbaa !14
  %50 = load i32, ptr %12, align 4, !tbaa !14
  call void @put_rv30_tpel8_v_lowpass(ptr noundef %44, ptr noundef %46, i32 noundef %47, i32 noundef %48, i32 noundef %49, i32 noundef %50)
  ret void
}

; Function Attrs: nounwind uwtable
define internal void @put_rv30_tpel16_mc01_c(ptr noundef %0, ptr noundef %1, i64 noundef %2) #3 {
  %4 = alloca ptr, align 8
  %5 = alloca ptr, align 8
  %6 = alloca i64, align 8
  store ptr %0, ptr %4, align 8, !tbaa !10
  store ptr %1, ptr %5, align 8, !tbaa !10
  store i64 %2, ptr %6, align 8, !tbaa !12
  %7 = load ptr, ptr %4, align 8, !tbaa !10
  %8 = load ptr, ptr %5, align 8, !tbaa !10
  %9 = load i64, ptr %6, align 8, !tbaa !12
  %10 = trunc i64 %9 to i32
  %11 = load i64, ptr %6, align 8, !tbaa !12
  %12 = trunc i64 %11 to i32
  call void @put_rv30_tpel16_v_lowpass(ptr noundef %7, ptr noundef %8, i32 noundef %10, i32 noundef %12, i32 noundef 12, i32 noundef 6)
  ret void
}